target datalayout = "e-m:e-p270:32:32-p271:32:32-p272:64:64-i64:64-i128:128-f80:128-n8:16:32:64-S128"
target triple = "x86_64-pc-linux-gnu"

%struct.slurm_msg = type { %struct.sockaddr_storage, ptr, i32, i32, i32, i8, i32, i8, i32, ptr, ptr, i32, ptr, ptr, i16, i8, i16, i16, %struct.forward, ptr, %struct.sockaddr_storage, ptr }
%struct.forward = type { %struct.slurm_node_alias_addrs_t, i16, i16, ptr, i32, i16, i16 }
%struct.slurm_node_alias_addrs_t = type { i64, ptr, ptr, i32, ptr }
%struct.sockaddr_storage = type { i16, [118 x i8], i64 }
%struct.config_request_msg_t = type { i32 }
%struct.return_code_msg = type { i32 }

@working_cluster_rec = external global ptr, align 8

; Function Attrs: nounwind uwtable
define dso_local ptr @fetch_config_from_controller(i32 noundef %0) #0 {
  %2 = alloca ptr, align 8
  %3 = alloca i32, align 4
  %4 = alloca i32, align 4
  %5 = alloca %struct.slurm_msg, align 8
  %6 = alloca %struct.slurm_msg, align 8
  %7 = alloca %struct.config_request_msg_t, align 4
  %8 = alloca ptr, align 8
  %9 = alloca i32, align 4
  store i32 %0, ptr %3, align 4
  call void @llvm.lifetime.start.p0(i64 4, ptr %4) #9
  call void @llvm.lifetime.start.p0(i64 424, ptr %5) #9
  call void @llvm.lifetime.start.p0(i64 424, ptr %6) #9
  call void @llvm.lifetime.start.p0(i64 4, ptr %7) #9
  call void @llvm.lifetime.start.p0(i64 8, ptr %8) #9
  call void @slurm_msg_t_init(ptr noundef %5)
  call void @slurm_msg_t_init(ptr noundef %6)
  call void @llvm.memset.p0.i64(ptr align 4 %7, i8 0, i64 4, i1 false)
  %10 = load i32, ptr %3, align 4
  %11 = getelementptr inbounds nuw %struct.config_request_msg_t, ptr %7, i32 0, i32 0
  store i32 %10, ptr %11, align 4
  %12 = getelementptr inbounds nuw %struct.slurm_msg, ptr %5, i32 0, i32 16
  store i16 2015, ptr %12, align 4
  %13 = getelementptr inbounds nuw %struct.slurm_msg, ptr %5, i32 0, i32 13
  store ptr %7, ptr %13, align 8
  %14 = load ptr, ptr @working_cluster_rec, align 8
  %15 = call i32 @slurm_send_recv_controller_msg(ptr noundef %5, ptr noundef %6, ptr noundef %14)
  %16 = icmp slt i32 %15, 0
  br i1 %16, label %17, label %18

17:                                               ; preds = %1
  store ptr null, ptr %2, align 8
  store i32 1, ptr %9, align 4
  br label %38

18:                                               ; preds = %1
  %19 = getelementptr inbounds nuw %struct.slurm_msg, ptr %6, i32 0, i32 16
  %20 = load i16, ptr %19, align 4
  %21 = zext i16 %20 to i32
  switch i32 %21, label %34 [
    i32 2016, label %22
    i32 8001, label %25
  ]

22:                                               ; preds = %18
  %23 = getelementptr inbounds nuw %struct.slurm_msg, ptr %6, i32 0, i32 13
  %24 = load ptr, ptr %23, align 8
  store ptr %24, ptr %8, align 8
  br label %36

25:                                               ; preds = %18
  %26 = getelementptr inbounds nuw %struct.slurm_msg, ptr %6, i32 0, i32 13
  %27 = load ptr, ptr %26, align 8
  %28 = getelementptr inbounds nuw %struct.return_code_msg, ptr %27, i32 0, i32 0
  %29 = load i32, ptr %28, align 4
  store i32 %29, ptr %4, align 4
  %30 = getelementptr inbounds nuw %struct.slurm_msg, ptr %6, i32 0, i32 13
  %31 = load ptr, ptr %30, align 8
  call void @slurm_free_return_code_msg(ptr noundef %31)
  %32 = load i32, ptr %4, align 4
  %33 = call ptr @__errno_location() #12
  store i32 %32, ptr %33, align 4
  store ptr null, ptr %2, align 8
  store i32 1, ptr %9, align 4
  br label %38

34:                                               ; preds = %18
  %35 = call ptr @__errno_location() #12
  store i32 1000, ptr %35, align 4
  store ptr null, ptr %2, align 8
  store i32 1, ptr %9, align 4
  br label %38

36:                                               ; preds = %22
  %37 = load ptr, ptr %8, align 8
  store ptr %37, ptr %2, align 8
  store i32 1, ptr %9, align 4
  br label %38

38:                                               ; preds = %36, %34, %25, %17
  call void @llvm.lifetime.end.p0(i64 8, ptr %8) #9
  call void @llvm.lifetime.end.p0(i64 4, ptr %7) #9
  call void @llvm.lifetime.end.p0(i64 424, ptr %6) #9
  call void @llvm.lifetime.end.p0(i64 424, ptr %5) #9
  call void @llvm.lifetime.end.p0(i64 4, ptr %4) #9
  %39 = load ptr, ptr %2, align 8
  ret ptr %39
}