; Function Attrs: nounwind uwtable
define dso_local ptr @fetch_config_from_controller(i32 noundef %0) local_unnamed_addr #0 {
  %2 = alloca %struct.slurm_msg, align 8
  %3 = alloca %struct.slurm_msg, align 8
  %4 = alloca %struct.config_request_msg_t, align 4
  call void @llvm.lifetime.start.p0(i64 424, ptr nonnull %2) #12
  call void @llvm.lifetime.start.p0(i64 424, ptr nonnull %3) #12
  call void @llvm.lifetime.start.p0(i64 4, ptr nonnull %4) #12
  call void @slurm_msg_t_init(ptr noundef nonnull %2) #12
  call void @slurm_msg_t_init(ptr noundef nonnull %3) #12
  store i32 %0, ptr %4, align 4
  %5 = getelementptr inbounds nuw i8, ptr %2, i64 212
  store i16 2015, ptr %5, align 4
  %6 = getelementptr inbounds nuw i8, ptr %2, i64 200
  store ptr %4, ptr %6, align 8
  %7 = load ptr, ptr @working_cluster_rec, align 8
  %8 = call i32 @slurm_send_recv_controller_msg(ptr noundef nonnull %2, ptr noundef nonnull %3, ptr noundef %7) #12
  %9 = icmp slt i32 %8, 0
  br i1 %9, label %23, label %10

10:                                               ; preds = %1
  %11 = getelementptr inbounds nuw i8, ptr %3, i64 212
  %12 = load i16, ptr %11, align 4
  switch i16 %12, label %21 [
    i16 2016, label %13
    i16 8001, label %16
  ]

13:                                               ; preds = %10
  %14 = getelementptr inbounds nuw i8, ptr %3, i64 200
  %15 = load ptr, ptr %14, align 8
  br label %23

16:                                               ; preds = %10
  %17 = getelementptr inbounds nuw i8, ptr %3, i64 200
  %18 = load ptr, ptr %17, align 8
  %19 = load i32, ptr %18, align 4
  call void @slurm_free_return_code_msg(ptr noundef nonnull %18) #12
  %20 = tail call ptr @__errno_location() #14
  store i32 %19, ptr %20, align 4
  br label %23

21:                                               ; preds = %10
  %22 = tail call ptr @__errno_location() #14
  store i32 1000, ptr %22, align 4
  br label %23

23:                                               ; preds = %1, %13, %21, %16
  %.0 = phi ptr [ null, %21 ], [ null, %16 ], [ %15, %13 ], [ null, %1 ]
  call void @llvm.lifetime.end.p0(i64 4, ptr nonnull %4) #12
  call void @llvm.lifetime.end.p0(i64 424, ptr nonnull %3) #12
  call void @llvm.lifetime.end.p0(i64 424, ptr nonnull %2) #12
  ret ptr %.0
}